Certificate:
    Data:
        Version: 3 (0x2)
        Serial Number: 3 (0x3)
        Signature Algorithm: sha256WithRSAEncryption
        Issuer: C=US, O=Google, OU=Enterprise, CN=Enterprise Subordinate CA
        Validity
            Not Before: Jan 23 16:54:24 2022 GMT
            Not After : May  2 16:54:24 2024 GMT
        Subject: C=US, O=Google, OU=Enterprise, CN=server.domain.com
        Subject Public Key Info:
            Public Key Algorithm: rsaEncryption
                RSA Public-Key: (2048 bit)
                Modulus:
                    00:ed:34:88:29:db:50:11:95:2b:4b:fe:33:07:54:
                    00:67:5f:cc:04:ed:76:e4:0d:11:1a:ea:c4:9d:f4:
                    2c:bd:d1:6b:5c:c7:4a:64:a6:c6:9d:a5:64:17:f4:
                    af:2a:8b:f0:0e:33:90:59:cf:5a:77:ff:42:52:39:
                    f7:5a:e3:0c:4e:b5:44:ac:e4:96:24:ec:58:e3:0a:
                    26:90:2a:6a:00:91:09:cd:ca:23:5c:70:d1:ee:e5:
                    3d:5c:f0:27:79:1f:2b:0a:44:7a:55:62:fa:0b:20:
                    bd:cc:9b:3d:7e:b1:8b:1d:83:d6:71:8a:78:65:76:
                    53:5b:1f:9c:61:ed:05:cb:4c:cd:7d:07:82:c5:b9:
                    75:e7:10:d5:e5:47:21:b7:90:33:a9:44:eb:80:86:
                    8b:d5:a0:71:e9:01:34:72:b6:c3:98:82:a5:9a:6c:
                    9e:35:0d:f6:d2:69:33:d9:fd:1d:48:41:fe:cc:93:
                    8e:e7:4e:b1:0e:f6:90:53:65:13:3e:16:3c:d7:35:
                    b7:f4:3c:f2:2c:17:e6:d2:03:72:c8:88:a7:d7:d9:
                    d8:3b:b9:8e:e3:12:a1:be:6e:39:c4:6a:f1:89:fe:
                    0c:d4:68:8a:6e:d4:8d:f3:41:79:ce:0a:db:cc:ec:
                    92:7e:9d:c6:25:3f:a3:c9:da:e2:30:26:fe:e9:c7:
                    a3:97
                Exponent: 65537 (0x10001)
        X509v3 extensions:
            X509v3 Key Usage: critical
                Digital Signature
            X509v3 Basic Constraints: 
                CA:FALSE
            X509v3 Extended Key Usage: 
                TLS Web Server Authentication
            X509v3 Subject Key Identifier: 
                8D:6A:B2:E5:A9:E8:28:4F:19:57:4A:91:C4:5D:1F:6A:F6:FA:70:75
            X509v3 Authority Key Identifier: 
                keyid:B7:BA:B0:02:A1:E7:BE:34:C6:C1:05:5C:66:78:E5:BB:53:5D:A1:54

            Authority Information Access: 
                CA Issuers - URI:http://pki.esodemoapp2.com/ca/tls-ca.cer

            X509v3 CRL Distribution Points: 

                Full Name:
                  URI:http://pki.esodemoapp2.com/ca/tls-ca.crl

            X509v3 Subject Alternative Name: 
                DNS:server.domain.com
    Signature Algorithm: sha256WithRSAEncryption
         38:84:70:a3:c7:99:b8:8c:8e:7b:2e:e1:85:37:56:a8:1f:d1:
         cd:ff:1a:d8:f4:3d:d4:1e:0d:99:1c:a1:2b:03:07:80:44:5a:
         0a:db:6d:7b:ca:73:dc:20:0e:5d:8a:5d:56:d8:a3:4b:8c:51:
         f3:79:51:d8:e5:51:6a:0a:38:a6:ec:a4:0c:ea:9b:ad:8d:df:
         9e:b2:64:92:85:95:20:be:40:54:ba:c2:7b:58:f5:2a:e1:3a:
         6e:0e:f3:af:55:23:66:d9:3f:58:6e:a6:c5:3b:9b:cd:99:7d:
         91:8d:32:cd:30:a5:f7:63:bd:44:de:63:4d:d9:60:7c:7b:c4:
         e7:5d:1f:36:58:5e:3d:88:6a:6e:dd:36:41:9d:e5:09:b3:4d:
         0c:34:38:f4:03:ab:fd:42:92:ec:7c:4d:52:61:b1:fe:90:55:
         db:e4:d4:b2:19:9c:fd:4d:10:ad:c9:e3:ec:e0:49:21:ef:41:
         c5:5d:a7:55:23:7b:78:15:f7:b6:f3:22:9a:2a:f8:cb:3b:0f:
         d4:b7:02:30:c9:1b:3f:00:8d:b3:37:10:81:65:23:b8:67:f0:
         11:39:ef:a4:c2:e1:1e:27:b4:4e:29:eb:99:11:f4:07:0a:d4:
         6d:f3:32:d5:e9:1b:19:b5:3c:1e:6b:73:7f:dc:2f:b1:c9:15:
         e3:d3:9b:8a
-----BEGIN CERTIFICATE-----
MIIENjCCAx6gAwIBAgIBAzANBgkqhkiG9w0BAQsFADBXMQswCQYDVQQGEwJVUzEP
MA0GA1UECgwGR29vZ2xlMRMwEQYDVQQLDApFbnRlcnByaXNlMSIwIAYDVQQDDBlF
bnRlcnByaXNlIFN1Ym9yZGluYXRlIENBMB4XDTIyMDEyMzE2NTQyNFoXDTI0MDUw
MjE2NTQyNFowTzELMAkGA1UEBhMCVVMxDzANBgNVBAoMBkdvb2dsZTETMBEGA1UE
CwwKRW50ZXJwcmlzZTEaMBgGA1UEAwwRc2VydmVyLmRvbWFpbi5jb20wggEiMA0G
CSqGSIb3DQEBAQUAA4IBDwAwggEKAoIBAQDtNIgp21ARlStL/jMHVABnX8wE7Xbk
DREa6sSd9Cy90Wtcx0pkpsadpWQX9K8qi/AOM5BZz1p3/0JSOfda4wxOtUSs5JYk
7FjjCiaQKmoAkQnNyiNccNHu5T1c8Cd5HysKRHpVYvoLIL3Mmz1+sYsdg9Zxinhl
dlNbH5xh7QXLTM19B4LFuXXnENXlRyG3kDOpROuAhovVoHHpATRytsOYgqWabJ41
DfbSaTPZ/R1IQf7Mk47nTrEO9pBTZRM+FjzXNbf0PPIsF+bSA3LIiKfX2dg7uY7j
EqG+bjnEavGJ/gzUaIpu1I3zQXnOCtvM7JJ+ncYlP6PJ2uIwJv7px6OXAgMBAAGj
ggETMIIBDzAOBgNVHQ8BAf8EBAMCB4AwCQYDVR0TBAIwADATBgNVHSUEDDAKBggr
BgEFBQcDATAdBgNVHQ4EFgQUjWqy5anoKE8ZV0qRxF0favb6cHUwHwYDVR0jBBgw
FoAUt7qwAqHnvjTGwQVcZnjlu1NdoVQwRAYIKwYBBQUHAQEEODA2MDQGCCsGAQUF
BzAChihodHRwOi8vcGtpLmVzb2RlbW9hcHAyLmNvbS9jYS90bHMtY2EuY2VyMDkG
A1UdHwQyMDAwLqAsoCqGKGh0dHA6Ly9wa2kuZXNvZGVtb2FwcDIuY29tL2NhL3Rs
cy1jYS5jcmwwHAYDVR0RBBUwE4IRc2VydmVyLmRvbWFpbi5jb20wDQYJKoZIhvcN
AQELBQADggEBADiEcKPHmbiMjnsu4YU3Vqgf0c3/Gtj0PdQeDZkcoSsDB4BEWgrb
bXvKc9wgDl2KXVbYo0uMUfN5UdjlUWoKOKbspAzqm62N356yZJKFlSC+QFS6wntY
9SrhOm4O869VI2bZP1hupsU7m82ZfZGNMs0wpfdjvUTeY03ZYHx7xOddHzZYXj2I
am7dNkGd5QmzTQw0OPQDq/1Ckux8TVJhsf6QVdvk1LIZnP1NEK3J4+zgSSHvQcVd
p1Uje3gV97bzIpoq+Ms7D9S3AjDJGz8AjbM3EIFlI7hn8BE576TC4R4ntE4p65kR
9AcK1G3zMtXpGxm1PB5rc3/cL7HJFePTm4o=
-----END CERTIFICATE-----
