Certificate:
    Data:
        Version: 3 (0x2)
        Serial Number: 6 (0x6)
        Signature Algorithm: sha1WithRSAEncryption
        Issuer: C=US, O=Google, OU=Enterprise, CN=Enterprise Subordinate CA
        Validity
            Not Before: Jul 10 19:26:49 2020 GMT
            Not After : Jul 10 19:26:49 2022 GMT
        Subject: C=US, O=Google, OU=Enterprise, CN=server.domain.com
        Subject Public Key Info:
            Public Key Algorithm: rsaEncryption
                RSA Public-Key: (2048 bit)
                Modulus:
                    00:a9:bb:88:ec:bd:7a:9a:33:51:3b:0c:78:db:96:
                    e9:2f:e8:10:ae:2b:d6:0a:8c:09:ff:90:da:ad:3b:
                    cf:f5:04:71:dd:2c:be:3d:0c:94:b5:1d:5f:fa:b2:
                    49:53:51:49:53:ec:9f:7b:82:07:a3:5f:0d:bd:1b:
                    d8:ad:84:0c:5f:87:92:a1:98:89:17:09:9d:0a:ed:
                    3e:e5:85:16:0e:23:2a:25:ff:f8:8e:44:d1:95:6f:
                    7b:45:b6:cc:b8:a6:11:1b:00:ab:36:a3:e5:fe:a7:
                    e1:4f:ee:59:98:75:85:d0:36:e5:19:99:bd:d5:2e:
                    3f:65:1c:68:ff:31:a8:2f:9d:28:81:88:4c:47:e3:
                    b0:f4:58:1c:83:41:2d:b5:e3:19:54:2c:f1:e1:fd:
                    da:d5:26:88:2b:5b:e8:81:46:cb:14:b7:e2:d4:67:
                    34:11:b3:3b:e8:d3:f6:12:e2:f1:9e:7a:3a:b7:48:
                    99:53:80:25:c0:f9:35:e0:a4:b3:be:cb:8c:ed:c3:
                    7f:68:45:d2:24:1d:da:1a:fe:e7:a9:62:10:fd:1a:
                    55:36:25:c9:ad:9b:73:44:6f:1c:87:d0:a4:39:60:
                    f0:54:af:14:c5:d9:69:12:76:a3:5e:76:0a:aa:72:
                    ef:a3:1e:2e:3d:35:86:56:3f:de:60:28:88:13:c4:
                    66:2f
                Exponent: 65537 (0x10001)
        X509v3 extensions:
            X509v3 Key Usage: critical
                Digital Signature
            X509v3 Basic Constraints: 
                CA:FALSE
            X509v3 Extended Key Usage: 
                TLS Web Server Authentication
            X509v3 Subject Key Identifier: 
                8E:81:F3:56:F0:4C:46:12:9E:14:0E:29:17:A4:02:11:7C:55:1F:E1
            X509v3 Authority Key Identifier: 
                keyid:BF:E1:1C:F0:22:48:8F:FC:3B:CF:5D:D9:ED:AE:88:70:21:DF:DD:86

            Authority Information Access: 
                CA Issuers - URI:http://pki.esodemoapp2.com/ca/tls-ca.cer

            X509v3 CRL Distribution Points: 

                Full Name:
                  URI:http://pki.esodemoapp2.com/ca/tls-ca.crl

            X509v3 Subject Alternative Name: 
                DNS:server.domain.com
    Signature Algorithm: sha1WithRSAEncryption
         6d:2f:b1:f5:67:64:97:84:7d:fa:92:97:6b:d7:07:c0:cc:f0:
         39:06:32:5d:38:c7:8e:cf:b6:80:f4:ec:b9:75:7f:bf:eb:14:
         25:20:ce:74:17:ce:4c:0c:c1:e0:21:49:3a:1b:f2:fc:5f:ca:
         e7:34:a8:53:65:55:43:95:9f:40:07:6e:8a:6c:96:6f:1a:6b:
         cf:83:31:a3:38:0f:19:ce:46:5e:79:e9:63:fe:3e:f8:c8:df:
         01:01:8d:29:46:25:f7:d3:73:bc:d8:14:b9:3f:c4:b9:db:e2:
         34:d4:66:04:49:9b:13:ff:f9:a0:c3:20:5b:99:7b:b0:32:52:
         dc:84:d9:30:59:35:df:f4:e3:cd:7b:d6:b5:ef:d4:3d:11:cc:
         05:58:67:b4:6c:32:60:33:3d:55:f3:15:db:85:88:f8:a2:b5:
         ad:40:c6:65:ab:79:a8:31:58:90:69:10:70:b0:f8:74:d9:ad:
         ff:41:72:9c:55:ae:48:8c:6d:f6:fc:b5:48:92:de:cc:36:27:
         2f:e2:a2:f6:5a:d0:25:4e:f1:01:e0:b9:d5:70:11:ac:e2:96:
         e5:ce:c1:ad:db:c8:a0:93:78:36:05:17:0d:08:e9:f9:d6:0e:
         9a:65:ec:47:e2:13:dd:b0:63:be:dc:1b:0b:a0:f4:e6:09:06:
         81:ab:aa:6a
-----BEGIN CERTIFICATE-----
MIIENjCCAx6gAwIBAgIBBjANBgkqhkiG9w0BAQUFADBXMQswCQYDVQQGEwJVUzEP
MA0GA1UECgwGR29vZ2xlMRMwEQYDVQQLDApFbnRlcnByaXNlMSIwIAYDVQQDDBlF
bnRlcnByaXNlIFN1Ym9yZGluYXRlIENBMB4XDTIwMDcxMDE5MjY0OVoXDTIyMDcx
MDE5MjY0OVowTzELMAkGA1UEBhMCVVMxDzANBgNVBAoMBkdvb2dsZTETMBEGA1UE
CwwKRW50ZXJwcmlzZTEaMBgGA1UEAwwRc2VydmVyLmRvbWFpbi5jb20wggEiMA0G
CSqGSIb3DQEBAQUAA4IBDwAwggEKAoIBAQCpu4jsvXqaM1E7DHjblukv6BCuK9YK
jAn/kNqtO8/1BHHdLL49DJS1HV/6sklTUUlT7J97ggejXw29G9ithAxfh5KhmIkX
CZ0K7T7lhRYOIyol//iORNGVb3tFtsy4phEbAKs2o+X+p+FP7lmYdYXQNuUZmb3V
Lj9lHGj/MagvnSiBiExH47D0WByDQS214xlULPHh/drVJogrW+iBRssUt+LUZzQR
szvo0/YS4vGeejq3SJlTgCXA+TXgpLO+y4ztw39oRdIkHdoa/uepYhD9GlU2Jcmt
m3NEbxyH0KQ5YPBUrxTF2WkSdqNedgqqcu+jHi49NYZWP95gKIgTxGYvAgMBAAGj
ggETMIIBDzAOBgNVHQ8BAf8EBAMCB4AwCQYDVR0TBAIwADATBgNVHSUEDDAKBggr
BgEFBQcDATAdBgNVHQ4EFgQUjoHzVvBMRhKeFA4pF6QCEXxVH+EwHwYDVR0jBBgw
FoAUv+Ec8CJIj/w7z13Z7a6IcCHf3YYwRAYIKwYBBQUHAQEEODA2MDQGCCsGAQUF
BzAChihodHRwOi8vcGtpLmVzb2RlbW9hcHAyLmNvbS9jYS90bHMtY2EuY2VyMDkG
A1UdHwQyMDAwLqAsoCqGKGh0dHA6Ly9wa2kuZXNvZGVtb2FwcDIuY29tL2NhL3Rs
cy1jYS5jcmwwHAYDVR0RBBUwE4IRc2VydmVyLmRvbWFpbi5jb20wDQYJKoZIhvcN
AQEFBQADggEBAG0vsfVnZJeEffqSl2vXB8DM8DkGMl04x47PtoD07Ll1f7/rFCUg
znQXzkwMweAhSTob8vxfyuc0qFNlVUOVn0AHbopslm8aa8+DMaM4DxnORl556WP+
PvjI3wEBjSlGJffTc7zYFLk/xLnb4jTUZgRJmxP/+aDDIFuZe7AyUtyE2TBZNd/0
48171rXv1D0RzAVYZ7RsMmAzPVXzFduFiPiita1AxmWreagxWJBpEHCw+HTZrf9B
cpxVrkiMbfb8tUiS3sw2Jy/iovZa0CVO8QHgudVwEaziluXOwa3byKCTeDYFFw0I
6fnWDppl7EfiE92wY77cGwug9OYJBoGrqmo=
-----END CERTIFICATE-----
